target datalayout = "e-m:e-p270:32:32-p271:32:32-p272:64:64-i64:64-i128:128-f80:128-n8:16:32:64-S128"
target triple = "x86_64-pc-linux-gnu"

%"class.icu_77::number::impl::StringProp" = type { ptr, i16, i32 }

; Function Attrs: inlinehint mustprogress nounwind uwtable
define internal noundef signext i8 @_ZL9U_FAILURE10UErrorCode(i32 noundef %0) #2 {
  %2 = alloca i32, align 4
  store i32 %0, ptr %2, align 4, !tbaa !15
  %3 = load i32, ptr %2, align 4, !tbaa !15
  %4 = icmp sgt i32 %3, 0
  %5 = zext i1 %4 to i8
  ret i8 %5
}

; Function Attrs: mustprogress uwtable
define noundef nonnull align 8 dereferenceable(16) ptr @_ZN6icu_776number4impl10StringPropaSERKS2_(ptr noundef nonnull align 8 dereferenceable(16) %0, ptr noundef nonnull align 8 dereferenceable(16) %1) #1 align 2 {
  %3 = alloca ptr, align 8
  %4 = alloca ptr, align 8
  %5 = alloca ptr, align 8
  store ptr %0, ptr %4, align 8, !tbaa !23
  store ptr %1, ptr %5, align 8, !tbaa !23
  %6 = load ptr, ptr %4, align 8
  %7 = load ptr, ptr %5, align 8, !tbaa !23
  %8 = icmp eq ptr %6, %7
  br i1 %8, label %9, label %10

9:                                                ; preds = %2
  store ptr %6, ptr %3, align 8
  br label %66

10:                                               ; preds = %2
  %11 = getelementptr inbounds nuw %"class.icu_77::number::impl::StringProp", ptr %6, i32 0, i32 1
  store i16 0, ptr %11, align 8, !tbaa !28
  %12 = load ptr, ptr %5, align 8, !tbaa !23
  %13 = getelementptr inbounds nuw %"class.icu_77::number::impl::StringProp", ptr %12, i32 0, i32 2
  %14 = load i32, ptr %13, align 4, !tbaa !29
  %15 = getelementptr inbounds nuw %"class.icu_77::number::impl::StringProp", ptr %6, i32 0, i32 2
  store i32 %14, ptr %15, align 4, !tbaa !29
  %16 = getelementptr inbounds nuw %"class.icu_77::number::impl::StringProp", ptr %6, i32 0, i32 0
  %17 = load ptr, ptr %16, align 8, !tbaa !25
  %18 = icmp ne ptr %17, null
  br i1 %18, label %19, label %23

19:                                               ; preds = %10
  %20 = getelementptr inbounds nuw %"class.icu_77::number::impl::StringProp", ptr %6, i32 0, i32 0
  %21 = load ptr, ptr %20, align 8, !tbaa !25
  call void @uprv_free_77(ptr noundef %21)
  %22 = getelementptr inbounds nuw %"class.icu_77::number::impl::StringProp", ptr %6, i32 0, i32 0
  store ptr null, ptr %22, align 8, !tbaa !25
  br label %23

23:                                               ; preds = %19, %10
  %24 = load ptr, ptr %5, align 8, !tbaa !23
  %25 = getelementptr inbounds nuw %"class.icu_77::number::impl::StringProp", ptr %24, i32 0, i32 0
  %26 = load ptr, ptr %25, align 8, !tbaa !25
  %27 = icmp eq ptr %26, null
  br i1 %27, label %28, label %29

28:                                               ; preds = %23
  store ptr %6, ptr %3, align 8
  br label %66

29:                                               ; preds = %23
  %30 = load ptr, ptr %5, align 8, !tbaa !23
  %31 = getelementptr inbounds nuw %"class.icu_77::number::impl::StringProp", ptr %30, i32 0, i32 2
  %32 = load i32, ptr %31, align 4, !tbaa !29
  %33 = call noundef signext i8 @_ZL9U_FAILURE10UErrorCode(i32 noundef %32)
  %34 = icmp ne i8 %33, 0
  br i1 %34, label %35, label %36

35:                                               ; preds = %29
  store ptr %6, ptr %3, align 8
  br label %66

36:                                               ; preds = %29
  %37 = load ptr, ptr %5, align 8, !tbaa !23
  %38 = getelementptr inbounds nuw %"class.icu_77::number::impl::StringProp", ptr %37, i32 0, i32 1
  %39 = load i16, ptr %38, align 8, !tbaa !28
  %40 = sext i16 %39 to i32
  %41 = add nsw i32 %40, 1
  %42 = sext i32 %41 to i64
  %43 = call noalias ptr @uprv_malloc_77(i64 noundef %42) #13
  %44 = getelementptr inbounds nuw %"class.icu_77::number::impl::StringProp", ptr %6, i32 0, i32 0
  store ptr %43, ptr %44, align 8, !tbaa !25
  %45 = getelementptr inbounds nuw %"class.icu_77::number::impl::StringProp", ptr %6, i32 0, i32 0
  %46 = load ptr, ptr %45, align 8, !tbaa !25
  %47 = icmp eq ptr %46, null
  br i1 %47, label %48, label %50

48:                                               ; preds = %36
  %49 = getelementptr inbounds nuw %"class.icu_77::number::impl::StringProp", ptr %6, i32 0, i32 2
  store i32 7, ptr %49, align 4, !tbaa !29
  store ptr %6, ptr %3, align 8
  br label %66

50:                                               ; preds = %36
  %51 = load ptr, ptr %5, align 8, !tbaa !23
  %52 = getelementptr inbounds nuw %"class.icu_77::number::impl::StringProp", ptr %51, i32 0, i32 1
  %53 = load i16, ptr %52, align 8, !tbaa !28
  %54 = getelementptr inbounds nuw %"class.icu_77::number::impl::StringProp", ptr %6, i32 0, i32 1
  store i16 %53, ptr %54, align 8, !tbaa !28
  %55 = getelementptr inbounds nuw %"class.icu_77::number::impl::StringProp", ptr %6, i32 0, i32 0
  %56 = load ptr, ptr %55, align 8, !tbaa !25
  %57 = load ptr, ptr %5, align 8, !tbaa !23
  %58 = getelementptr inbounds nuw %"class.icu_77::number::impl::StringProp", ptr %57, i32 0, i32 0
  %59 = load ptr, ptr %58, align 8, !tbaa !25
  %60 = getelementptr inbounds nuw %"class.icu_77::number::impl::StringProp", ptr %6, i32 0, i32 1
  %61 = load i16, ptr %60, align 8, !tbaa !28
  %62 = sext i16 %61 to i32
  %63 = add nsw i32 %62, 1
  %64 = sext i32 %63 to i64
  %65 = call ptr @strncpy(ptr noundef %56, ptr noundef %59, i64 noundef %64) #12
  store ptr %6, ptr %3, align 8
  br label %66

66:                                               ; preds = %50, %48, %35, %28, %9
  %67 = load ptr, ptr %3, align 8
  ret ptr %67
}

; Function Attrs: mustprogress nounwind uwtable
define linkonce_odr void @_ZN6icu_776number4impl10StringPropC2Ev(ptr noundef nonnull align 8 dereferenceable(16) %0) unnamed_addr #0 comdat align 2 {
  %2 = alloca ptr, align 8
  store ptr %0, ptr %2, align 8, !tbaa !23
  %3 = load ptr, ptr %2, align 8
  %4 = getelementptr inbounds nuw %"class.icu_77::number::impl::StringProp", ptr %3, i32 0, i32 0
  store ptr null, ptr %4, align 8, !tbaa !25
  %5 = getelementptr inbounds nuw %"class.icu_77::number::impl::StringProp", ptr %3, i32 0, i32 1
  store i16 0, ptr %5, align 8, !tbaa !28
  %6 = getelementptr inbounds nuw %"class.icu_77::number::impl::StringProp", ptr %3, i32 0, i32 2
  store i32 0, ptr %6, align 4, !tbaa !29
  ret void
}

; Function Attrs: mustprogress uwtable
define void @_ZN6icu_776number4impl10StringPropC2ERKS2_(ptr noundef nonnull align 8 dereferenceable(16) %0, ptr noundef nonnull align 8 dereferenceable(16) %1) unnamed_addr #1 align 2 personality ptr @__gxx_personality_v0 {
  %3 = alloca ptr, align 8
  %4 = alloca ptr, align 8
  %5 = alloca ptr, align 8
  %6 = alloca i32, align 4
  store ptr %0, ptr %3, align 8, !tbaa !23
  store ptr %1, ptr %4, align 8, !tbaa !23
  %7 = load ptr, ptr %3, align 8
  call void @_ZN6icu_776number4impl10StringPropC2Ev(ptr noundef nonnull align 8 dereferenceable(16) %7)
  %8 = load ptr, ptr %4, align 8, !tbaa !23
  %9 = invoke noundef nonnull align 8 dereferenceable(16) ptr @_ZN6icu_776number4impl10StringPropaSERKS2_(ptr noundef nonnull align 8 dereferenceable(16) %7, ptr noundef nonnull align 8 dereferenceable(16) %8)
          to label %10 unwind label %11

10:                                               ; preds = %2
  ret void

11:                                               ; preds = %2
  %12 = landingpad { ptr, i32 }
          cleanup
  %13 = extractvalue { ptr, i32 } %12, 0
  store ptr %13, ptr %5, align 8
  %14 = extractvalue { ptr, i32 } %12, 1
  store i32 %14, ptr %6, align 4
  call void @_ZN6icu_776number4impl10StringPropD2Ev(ptr noundef nonnull align 8 dereferenceable(16) %7) #12
  br label %15

15:                                               ; preds = %11
  %16 = load ptr, ptr %5, align 8
  %17 = load i32, ptr %6, align 4
  %18 = insertvalue { ptr, i32 } poison, ptr %16, 0
  %19 = insertvalue { ptr, i32 } %18, i32 %17, 1
  resume { ptr, i32 } %19
}