; Function Attrs: mustprogress uwtable
define void @_ZN6icu_776number4impl10StringPropC2ERKS2_(ptr noundef nonnull align 8 dereferenceable(16) initializes((0, 10), (12, 16)) %0, ptr noundef nonnull readonly align 8 dereferenceable(16) %1) unnamed_addr #1 align 2 personality ptr @__gxx_personality_v0 {
  store ptr null, ptr %0, align 8, !tbaa !15
  %3 = getelementptr inbounds nuw i8, ptr %0, i64 8
  store i16 0, ptr %3, align 8, !tbaa !18
  %4 = getelementptr inbounds nuw i8, ptr %0, i64 12
  store i32 0, ptr %4, align 4, !tbaa !19
  %5 = icmp eq ptr %0, %1
  br i1 %5, label %_ZN6icu_776number4impl10StringPropaSERKS2_.exit, label %6

6:                                                ; preds = %2
  store i16 0, ptr %3, align 8, !tbaa !18
  %7 = getelementptr inbounds nuw i8, ptr %1, i64 12
  %8 = load i32, ptr %7, align 4, !tbaa !19
  store i32 %8, ptr %4, align 4, !tbaa !19
  %9 = load ptr, ptr %1, align 8, !tbaa !15
  %10 = icmp ne ptr %9, null
  %11 = icmp slt i32 %8, 1
  %or.cond.i = select i1 %10, i1 %11, i1 false
  br i1 %or.cond.i, label %12, label %_ZN6icu_776number4impl10StringPropaSERKS2_.exit

12:                                               ; preds = %6
  %13 = getelementptr inbounds nuw i8, ptr %1, i64 8
  %14 = load i16, ptr %13, align 8, !tbaa !18
  %15 = sext i16 %14 to i64
  %16 = add nsw i64 %15, 1
  %17 = invoke noalias ptr @uprv_malloc_77(i64 noundef %16) #16
          to label %.noexc3 unwind label %26

.noexc3:                                          ; preds = %12
  store ptr %17, ptr %0, align 8, !tbaa !15
  %18 = icmp eq ptr %17, null
  br i1 %18, label %19, label %20

19:                                               ; preds = %.noexc3
  store i32 7, ptr %4, align 4, !tbaa !19
  br label %_ZN6icu_776number4impl10StringPropaSERKS2_.exit

20:                                               ; preds = %.noexc3
  %21 = load i16, ptr %13, align 8, !tbaa !18
  store i16 %21, ptr %3, align 8, !tbaa !18
  %22 = load ptr, ptr %1, align 8, !tbaa !15
  %23 = sext i16 %21 to i64
  %24 = add nsw i64 %23, 1
  %25 = tail call ptr @strncpy(ptr noundef nonnull %17, ptr noundef %22, i64 noundef %24) #15
  br label %_ZN6icu_776number4impl10StringPropaSERKS2_.exit

_ZN6icu_776number4impl10StringPropaSERKS2_.exit:  ; preds = %20, %19, %6, %2
  ret void

26:                                               ; preds = %12
  %27 = landingpad { ptr, i32 }
          cleanup
  tail call void @_ZN6icu_776number4impl10StringPropD2Ev(ptr noundef nonnull align 8 dereferenceable(16) %0) #15
  resume { ptr, i32 } %27
}